; Function Attrs: mustprogress nounwind uwtable
define internal fastcc void @_ZSt8_DestroyIPN4i18n12phonenumbers12_GLOBAL__N_110NumberTestES3_EvT_S5_RSaIT0_E(ptr noundef %0, ptr noundef readnone %1) unnamed_addr #6 {
  %.not4.i.i = icmp eq ptr %0, %1
  br i1 %.not4.i.i, label %_ZSt8_DestroyIPN4i18n12phonenumbers12_GLOBAL__N_110NumberTestEEvT_S5_.exit, label %.lr.ph.i.i

.lr.ph.i.i:                                       ; preds = %2, %.lr.ph.i.i
  %.05.i.i = phi ptr [ %4, %.lr.ph.i.i ], [ %0, %2 ]
  %3 = getelementptr inbounds i8, ptr %.05.i.i, i64 32
  tail call void @_ZNSt7__cxx1112basic_stringIcSt11char_traitsIcESaIcEED1Ev(ptr noundef nonnull align 8 dereferenceable(32) %3) #16
  tail call void @_ZNSt7__cxx1112basic_stringIcSt11char_traitsIcESaIcEED1Ev(ptr noundef nonnull align 8 dereferenceable(32) %.05.i.i) #16
  %4 = getelementptr inbounds i8, ptr %.05.i.i, i64 64
  %.not.i.i = icmp eq ptr %4, %1
  br i1 %.not.i.i, label %_ZSt8_DestroyIPN4i18n12phonenumbers12_GLOBAL__N_110NumberTestEEvT_S5_.exit, label %.lr.ph.i.i, !llvm.loop !21

_ZSt8_DestroyIPN4i18n12phonenumbers12_GLOBAL__N_110NumberTestEEvT_S5_.exit: ; preds = %.lr.ph.i.i, %2
  ret void
}